; Function Attrs: nounwind sspstrong uwtable
define internal fastcc i64 @rlimit_resource_value(i64 noundef %0) unnamed_addr #1 {
  %2 = alloca i64, align 8
  store i64 %0, ptr %2, align 8, !tbaa !43
  %3 = icmp eq i64 %0, 0
  %4 = and i64 %0, 7
  %5 = icmp ne i64 %4, 0
  %6 = or i1 %3, %5
  br i1 %6, label %7, label %rb_type.exit

7:                                                ; preds = %1
  %8 = tail call i64 @llvm.fshl.i64(i64 %0, i64 %0, i64 62)
  switch i64 %8, label %9 [
    i64 0, label %rb_type.exit.thread
    i64 1, label %rb_type.exit.thread
    i64 5, label %rb_type.exit.thread
    i64 9, label %rb_type.exit.thread
  ]

9:                                                ; preds = %7
  %10 = and i64 %0, 1
  %.not.i = icmp eq i64 %10, 0
  br i1 %.not.i, label %11, label %rb_type.exit.thread12

11:                                               ; preds = %9
  %12 = and i64 %0, 254
  %13 = icmp eq i64 %12, 12
  br i1 %13, label %rb_type.exit.thread10, label %rb_type.exit.thread

rb_type.exit:                                     ; preds = %1
  %14 = inttoptr i64 %0 to ptr
  %15 = load i64, ptr %14, align 8, !tbaa !69
  %16 = trunc i64 %15 to i32
  %17 = and i32 %16, 31
  switch i32 %17, label %rb_type.exit.thread [
    i32 20, label %rb_type.exit.thread10
    i32 5, label %27
    i32 21, label %rb_type.exit.thread12
    i32 10, label %rb_type.exit.thread12
  ]

rb_type.exit.thread10:                            ; preds = %11, %rb_type.exit
  %18 = tail call i64 @rb_sym2str(i64 noundef %0) #27
  %19 = inttoptr i64 %18 to ptr
  %20 = load i64, ptr %19, align 8, !tbaa !69, !noalias !326
  %21 = and i64 %20, 8192
  %.not.i.i = icmp eq i64 %21, 0
  %22 = getelementptr inbounds nuw i8, ptr %19, i64 24
  br i1 %.not.i.i, label %RSTRING_PTR.exit, label %23

23:                                               ; preds = %rb_type.exit.thread10
  %.sroa.2.0.copyload.i = load ptr, ptr %22, align 8
  br label %RSTRING_PTR.exit

rb_type.exit.thread:                              ; preds = %7, %7, %7, %11, %7, %rb_type.exit
  %24 = tail call i64 @rb_check_string_type(i64 noundef %0) #27
  %25 = icmp eq i64 %24, 4
  br i1 %25, label %rb_type.exit.thread12, label %26

26:                                               ; preds = %rb_type.exit.thread
  store i64 %24, ptr %2, align 8, !tbaa !43
  br label %27

27:                                               ; preds = %26, %rb_type.exit
  %28 = call ptr @rb_string_value_cstr(ptr noundef nonnull %2) #27
  br label %RSTRING_PTR.exit

rb_type.exit.thread12:                            ; preds = %9, %rb_type.exit.thread, %rb_type.exit, %rb_type.exit
  %29 = and i64 %0, 1
  %.not.i7 = icmp eq i64 %29, 0
  br i1 %.not.i7, label %32, label %30

30:                                               ; preds = %rb_type.exit.thread12
  %31 = ashr i64 %0, 1
  br label %rb_num2ulong_inline.exit

32:                                               ; preds = %rb_type.exit.thread12
  %33 = tail call i64 @rb_num2ulong(i64 noundef %0) #27
  br label %rb_num2ulong_inline.exit

RSTRING_PTR.exit:                                 ; preds = %23, %rb_type.exit.thread10, %27
  %.0 = phi ptr [ %28, %27 ], [ %.sroa.2.0.copyload.i, %23 ], [ %22, %rb_type.exit.thread10 ]
  %34 = call i32 @strcmp(ptr noundef nonnull dereferenceable(1) %.0, ptr noundef nonnull dereferenceable(9) @.str.243) #28
  %35 = icmp eq i32 %34, 0
  br i1 %35, label %rb_num2ulong_inline.exit, label %36

36:                                               ; preds = %RSTRING_PTR.exit
  %37 = call i32 @strcmp(ptr noundef nonnull dereferenceable(1) %.0, ptr noundef nonnull dereferenceable(10) @.str.244) #28
  %38 = icmp eq i32 %37, 0
  br i1 %38, label %rb_num2ulong_inline.exit, label %39

39:                                               ; preds = %36
  %40 = call i32 @strcmp(ptr noundef nonnull dereferenceable(1) %.0, ptr noundef nonnull dereferenceable(10) @.str.245) #28
  %41 = icmp eq i32 %40, 0
  br i1 %41, label %rb_num2ulong_inline.exit, label %42

42:                                               ; preds = %39
  %43 = load i64, ptr @rb_eArgError, align 8, !tbaa !43
  %44 = load i64, ptr %2, align 8, !tbaa !43
  call void (i64, ptr, ...) @rb_raise(i64 noundef %43, ptr noundef nonnull @.str.246, i64 noundef %44) #29
  unreachable

rb_num2ulong_inline.exit:                         ; preds = %32, %30, %39, %36, %RSTRING_PTR.exit
  %.06 = phi i64 [ -1, %RSTRING_PTR.exit ], [ -1, %36 ], [ -1, %39 ], [ %31, %30 ], [ %33, %32 ]
  ret i64 %.06
}